target datalayout = "e-m:e-p270:32:32-p271:32:32-p272:64:64-i64:64-i128:128-f80:128-n8:16:32:64-S128"
target triple = "x86_64-unknown-linux-gnu"

%struct.EHCIState = type { %struct.USBBus, ptr, ptr, %struct.MemoryRegion, ptr, %struct.MemoryRegion, %struct.MemoryRegion, %struct.MemoryRegion, i32, i8, i16, i16, i16, i16, i32, [16 x i8], %union.anon.5, [6 x i32], ptr, ptr, i8, i32, i32, [6 x %struct.USBPort], [6 x ptr], i32, i32, %union.EHCIQueueHead, %union.EHCIQueueHead, i32, i32, %struct.USBPacket, %struct.QEMUSGList, i64, i32, i32, i8, ptr }
%struct.USBBus = type { %struct.BusState, ptr, i32, i32, i32, %union.anon, %union.anon.0, %union.anon.1 }
%struct.BusState = type { %struct.Object, ptr, ptr, ptr, i32, i8, i8, i32, %union.BusChildHead, %struct.BusStateEntry, %struct.ResettableState }
%struct.Object = type { ptr, ptr, ptr, i32, ptr }
%union.BusChildHead = type { %struct.QTailQLink }
%struct.QTailQLink = type { ptr, ptr }
%struct.BusStateEntry = type { ptr, ptr }
%struct.ResettableState = type { i32, i8, i8 }
%union.anon = type { %struct.QTailQLink }
%union.anon.0 = type { %struct.QTailQLink }
%union.anon.1 = type { %struct.QTailQLink }
%struct.MemoryRegion = type { %struct.Object, i8, i8, i8, i8, i8, i8, i8, i8, i8, i8, ptr, ptr, ptr, ptr, ptr, ptr, i32, i128, i64, ptr, i64, i8, i8, i8, i8, i8, ptr, i64, i32, %union.anon.2, %union.anon.3, %union.anon.4, ptr, i32, ptr, ptr, i8 }
%union.anon.2 = type { %struct.QTailQLink }
%union.anon.3 = type { %struct.QTailQLink }
%union.anon.4 = type { %struct.QTailQLink }
%union.anon.5 = type { [17 x i32] }
%struct.USBPort = type { ptr, i32, i32, [16 x i8], ptr, ptr, i32, %union.anon.6 }
%union.anon.6 = type { %struct.QTailQLink }
%union.EHCIQueueHead = type { %struct.QTailQLink }
%struct.USBPacket = type { i32, i64, ptr, i32, %struct.QEMUIOVector, i64, i8, i8, i32, i32, i32, ptr, %union.anon.10, %union.anon.11 }
%struct.QEMUIOVector = type { ptr, i32, %union.anon.7 }
%union.anon.7 = type { %struct.anon.8 }
%struct.anon.8 = type { i32, %struct.iovec }
%struct.iovec = type { ptr, i64 }
%union.anon.10 = type { %struct.QTailQLink }
%union.anon.11 = type { %struct.QTailQLink }
%struct.QEMUSGList = type { ptr, i32, i32, i64, ptr, ptr }
%struct.anon = type { i32, i32, i32, i32, i32, i32, i32, [9 x i32], i32 }
%struct.timeval = type { i64, i64 }
%struct.MemTxAttrs = type { i32 }

@trace_events_enabled_count = external global i32, align 4
@message_with_timestamp = external global i8, align 1
@qemu_loglevel = external global i32, align 4
@_TRACE_USB_EHCI_DMA_ERROR_DSTATE = external global i16, align 2
@.str.44 = private unnamed_addr constant [34 x i8] c"%d@%zu.%06zu:usb_ehci_dma_error \0A\00", align 1
@.str.45 = private unnamed_addr constant [21 x i8] c"usb_ehci_dma_error \0A\00", align 1

; Function Attrs: nounwind sspstrong uwtable
define internal i32 @dma_memory_rw_relaxed(ptr noundef %as, i64 noundef %addr, ptr noundef %buf, i64 noundef %len, i32 noundef %dir, i32 %attrs.coerce) #0 {
entry:
  %attrs = alloca %struct.MemTxAttrs, align 4
  %as.addr = alloca ptr, align 8
  %addr.addr = alloca i64, align 8
  %buf.addr = alloca ptr, align 8
  %len.addr = alloca i64, align 8
  %dir.addr = alloca i32, align 4
  %coerce.dive = getelementptr inbounds %struct.MemTxAttrs, ptr %attrs, i32 0, i32 0
  store i32 %attrs.coerce, ptr %coerce.dive, align 4
  store ptr %as, ptr %as.addr, align 8
  store i64 %addr, ptr %addr.addr, align 8
  store ptr %buf, ptr %buf.addr, align 8
  store i64 %len, ptr %len.addr, align 8
  store i32 %dir, ptr %dir.addr, align 4
  %0 = load ptr, ptr %as.addr, align 8
  %1 = load i64, ptr %addr.addr, align 8
  %2 = load ptr, ptr %buf.addr, align 8
  %3 = load i64, ptr %len.addr, align 8
  %4 = load i32, ptr %dir.addr, align 4
  %cmp = icmp eq i32 %4, 1
  %coerce.dive1 = getelementptr inbounds %struct.MemTxAttrs, ptr %attrs, i32 0, i32 0
  %5 = load i32, ptr %coerce.dive1, align 4
  %call = call i32 @address_space_rw(ptr noundef %0, i64 noundef %1, i32 %5, ptr noundef %2, i64 noundef %3, i1 noundef zeroext %cmp)
  ret i32 %call
}

; Function Attrs: nounwind sspstrong uwtable
define internal void @dma_barrier(ptr noundef %as, i32 noundef %dir) #0 {
entry:
  %as.addr = alloca ptr, align 8
  %dir.addr = alloca i32, align 4
  store ptr %as, ptr %as.addr, align 8
  store i32 %dir, ptr %dir.addr, align 4
  call void asm sideeffect "", "~{memory},~{dirflag},~{fpsr},~{flags}"() #10, !srcloc !14
  fence seq_cst
  ret void
}

; Function Attrs: nounwind sspstrong uwtable
define internal zeroext i1 @qemu_loglevel_mask(i32 noundef %mask) #0 {
entry:
  %mask.addr = alloca i32, align 4
  store i32 %mask, ptr %mask.addr, align 4
  %0 = load i32, ptr @qemu_loglevel, align 4
  %1 = load i32, ptr %mask.addr, align 4
  %and = and i32 %0, %1
  %cmp = icmp ne i32 %and, 0
  ret i1 %cmp
}

; Function Attrs: nounwind sspstrong uwtable
define internal i32 @dma_memory_rw(ptr noundef %as, i64 noundef %addr, ptr noundef %buf, i64 noundef %len, i32 noundef %dir, i32 %attrs.coerce) #0 {
entry:
  %attrs = alloca %struct.MemTxAttrs, align 4
  %as.addr = alloca ptr, align 8
  %addr.addr = alloca i64, align 8
  %buf.addr = alloca ptr, align 8
  %len.addr = alloca i64, align 8
  %dir.addr = alloca i32, align 4
  %coerce.dive = getelementptr inbounds %struct.MemTxAttrs, ptr %attrs, i32 0, i32 0
  store i32 %attrs.coerce, ptr %coerce.dive, align 4
  store ptr %as, ptr %as.addr, align 8
  store i64 %addr, ptr %addr.addr, align 8
  store ptr %buf, ptr %buf.addr, align 8
  store i64 %len, ptr %len.addr, align 8
  store i32 %dir, ptr %dir.addr, align 4
  %0 = load ptr, ptr %as.addr, align 8
  %1 = load i32, ptr %dir.addr, align 4
  call void @dma_barrier(ptr noundef %0, i32 noundef %1)
  %2 = load ptr, ptr %as.addr, align 8
  %3 = load i64, ptr %addr.addr, align 8
  %4 = load ptr, ptr %buf.addr, align 8
  %5 = load i64, ptr %len.addr, align 8
  %6 = load i32, ptr %dir.addr, align 4
  %coerce.dive1 = getelementptr inbounds %struct.MemTxAttrs, ptr %attrs, i32 0, i32 0
  %7 = load i32, ptr %coerce.dive1, align 4
  %call = call i32 @dma_memory_rw_relaxed(ptr noundef %2, i64 noundef %3, ptr noundef %4, i64 noundef %5, i32 noundef %6, i32 %7)
  ret i32 %call
}

; Function Attrs: nounwind sspstrong uwtable
define internal void @_nocheck__trace_usb_ehci_dma_error() #0 {
entry:
  %_now = alloca %struct.timeval, align 8
  %0 = load i32, ptr @trace_events_enabled_count, align 4
  %tobool = icmp ne i32 %0, 0
  %lnot = xor i1 %tobool, true
  %lnot1 = xor i1 %lnot, true
  %lnot.ext = zext i1 %lnot1 to i32
  %conv = sext i32 %lnot.ext to i64
  %tobool2 = icmp ne i64 %conv, 0
  br i1 %tobool2, label %land.lhs.true, label %if.end11

land.lhs.true:                                    ; preds = %entry
  %1 = load i16, ptr @_TRACE_USB_EHCI_DMA_ERROR_DSTATE, align 2
  %conv3 = zext i16 %1 to i32
  %tobool4 = icmp ne i32 %conv3, 0
  br i1 %tobool4, label %land.lhs.true5, label %if.end11

land.lhs.true5:                                   ; preds = %land.lhs.true
  %call = call zeroext i1 @qemu_loglevel_mask(i32 noundef 32768)
  br i1 %call, label %if.then, label %if.end11

if.then:                                          ; preds = %land.lhs.true5
  %2 = load i8, ptr @message_with_timestamp, align 1
  %tobool7 = trunc i8 %2 to i1
  br i1 %tobool7, label %if.then8, label %if.else

if.then8:                                         ; preds = %if.then
  %call9 = call i32 @gettimeofday(ptr noundef %_now, ptr noundef null) #10
  %call10 = call i32 @qemu_get_thread_id()
  %tv_sec = getelementptr inbounds %struct.timeval, ptr %_now, i32 0, i32 0
  %3 = load i64, ptr %tv_sec, align 8
  %tv_usec = getelementptr inbounds %struct.timeval, ptr %_now, i32 0, i32 1
  %4 = load i64, ptr %tv_usec, align 8
  call void (ptr, ...) @qemu_log(ptr noundef @.str.44, i32 noundef %call10, i64 noundef %3, i64 noundef %4)
  br label %if.end

if.else:                                          ; preds = %if.then
  call void (ptr, ...) @qemu_log(ptr noundef @.str.45)
  br label %if.end

if.end:                                           ; preds = %if.else, %if.then8
  br label %if.end11

if.end11:                                         ; preds = %if.end, %land.lhs.true5, %land.lhs.true, %entry
  ret void
}

; Function Attrs: nounwind sspstrong uwtable
define internal i32 @dma_memory_write(ptr noundef %as, i64 noundef %addr, ptr noundef %buf, i64 noundef %len, i32 %attrs.coerce) #0 {
entry:
  %attrs = alloca %struct.MemTxAttrs, align 4
  %as.addr = alloca ptr, align 8
  %addr.addr = alloca i64, align 8
  %buf.addr = alloca ptr, align 8
  %len.addr = alloca i64, align 8
  %coerce.dive = getelementptr inbounds %struct.MemTxAttrs, ptr %attrs, i32 0, i32 0
  store i32 %attrs.coerce, ptr %coerce.dive, align 4
  store ptr %as, ptr %as.addr, align 8
  store i64 %addr, ptr %addr.addr, align 8
  store ptr %buf, ptr %buf.addr, align 8
  store i64 %len, ptr %len.addr, align 8
  %0 = load ptr, ptr %as.addr, align 8
  %1 = load i64, ptr %addr.addr, align 8
  %2 = load ptr, ptr %buf.addr, align 8
  %3 = load i64, ptr %len.addr, align 8
  %coerce.dive1 = getelementptr inbounds %struct.MemTxAttrs, ptr %attrs, i32 0, i32 0
  %4 = load i32, ptr %coerce.dive1, align 4
  %call = call i32 @dma_memory_rw(ptr noundef %0, i64 noundef %1, ptr noundef %2, i64 noundef %3, i32 noundef 1, i32 %4)
  ret i32 %call
}

; Function Attrs: nounwind sspstrong uwtable
define internal i32 @cpu_to_le32(i32 noundef %v) #0 {
entry:
  %v.addr = alloca i32, align 4
  store i32 %v, ptr %v.addr, align 4
  %0 = load i32, ptr %v.addr, align 4
  ret i32 %0
}

; Function Attrs: nounwind sspstrong uwtable
define internal void @trace_usb_ehci_dma_error() #0 {
entry:
  call void @_nocheck__trace_usb_ehci_dma_error()
  ret void
}

; Function Attrs: nounwind sspstrong uwtable
define internal void @ehci_raise_irq(ptr noundef %s, i32 noundef %intr) #0 {
entry:
  %s.addr = alloca ptr, align 8
  %intr.addr = alloca i32, align 4
  store ptr %s, ptr %s.addr, align 8
  store i32 %intr, ptr %intr.addr, align 4
  %0 = load i32, ptr %intr.addr, align 4
  %and = and i32 %0, 28
  %tobool = icmp ne i32 %and, 0
  br i1 %tobool, label %if.then, label %if.else

if.then:                                          ; preds = %entry
  %1 = load i32, ptr %intr.addr, align 4
  %2 = load ptr, ptr %s.addr, align 8
  %3 = getelementptr inbounds %struct.EHCIState, ptr %2, i32 0, i32 16
  %usbsts = getelementptr inbounds %struct.anon, ptr %3, i32 0, i32 1
  %4 = load i32, ptr %usbsts, align 4
  %or = or i32 %4, %1
  store i32 %or, ptr %usbsts, align 4
  %5 = load ptr, ptr %s.addr, align 8
  call void @ehci_update_irq(ptr noundef %5)
  br label %if.end

if.else:                                          ; preds = %entry
  %6 = load i32, ptr %intr.addr, align 4
  %7 = load ptr, ptr %s.addr, align 8
  %usbsts_pending = getelementptr inbounds %struct.EHCIState, ptr %7, i32 0, i32 25
  %8 = load i32, ptr %usbsts_pending, align 16
  %or1 = or i32 %8, %6
  store i32 %or1, ptr %usbsts_pending, align 16
  br label %if.end

if.end:                                           ; preds = %if.else, %if.then
  ret void
}

; Function Attrs: nounwind sspstrong uwtable
define internal i32 @put_dwords(ptr noundef %ehci, i32 noundef %addr, ptr noundef %buf, i32 noundef %num) #0 {
entry:
  %retval = alloca i32, align 4
  %ehci.addr = alloca ptr, align 8
  %addr.addr = alloca i32, align 4
  %buf.addr = alloca ptr, align 8
  %num.addr = alloca i32, align 4
  %i = alloca i32, align 4
  %tmp = alloca i32, align 4
  %.compoundliteral = alloca %struct.MemTxAttrs, align 4
  store ptr %ehci, ptr %ehci.addr, align 8
  store i32 %addr, ptr %addr.addr, align 4
  store ptr %buf, ptr %buf.addr, align 8
  store i32 %num, ptr %num.addr, align 4
  %0 = load ptr, ptr %ehci.addr, align 8
  %as = getelementptr inbounds %struct.EHCIState, ptr %0, i32 0, i32 4
  %1 = load ptr, ptr %as, align 16
  %tobool = icmp ne ptr %1, null
  br i1 %tobool, label %if.end, label %if.then

if.then:                                          ; preds = %entry
  %2 = load ptr, ptr %ehci.addr, align 8
  call void @ehci_raise_irq(ptr noundef %2, i32 noundef 16)
  %3 = load ptr, ptr %ehci.addr, align 8
  %4 = getelementptr inbounds %struct.EHCIState, ptr %3, i32 0, i32 16
  %usbcmd = getelementptr inbounds %struct.anon, ptr %4, i32 0, i32 0
  %5 = load i32, ptr %usbcmd, align 4
  %and = and i32 %5, -2
  store i32 %and, ptr %usbcmd, align 4
  call void @trace_usb_ehci_dma_error()
  store i32 -1, ptr %retval, align 4
  br label %return

if.end:                                           ; preds = %entry
  store i32 0, ptr %i, align 4
  br label %for.cond

for.cond:                                         ; preds = %for.inc, %if.end
  %6 = load i32, ptr %i, align 4
  %7 = load i32, ptr %num.addr, align 4
  %cmp = icmp slt i32 %6, %7
  br i1 %cmp, label %for.body, label %for.end

for.body:                                         ; preds = %for.cond
  %8 = load ptr, ptr %buf.addr, align 8
  %9 = load i32, ptr %8, align 4
  %call = call i32 @cpu_to_le32(i32 noundef %9)
  store i32 %call, ptr %tmp, align 4
  %10 = load ptr, ptr %ehci.addr, align 8
  %as1 = getelementptr inbounds %struct.EHCIState, ptr %10, i32 0, i32 4
  %11 = load ptr, ptr %as1, align 16
  %12 = load i32, ptr %addr.addr, align 4
  %conv = zext i32 %12 to i64
  %bf.load = load i32, ptr %.compoundliteral, align 4
  %bf.clear = and i32 %bf.load, -2
  %bf.set = or i32 %bf.clear, 1
  store i32 %bf.set, ptr %.compoundliteral, align 4
  %bf.load2 = load i32, ptr %.compoundliteral, align 4
  %bf.clear3 = and i32 %bf.load2, -3
  %bf.set4 = or i32 %bf.clear3, 0
  store i32 %bf.set4, ptr %.compoundliteral, align 4
  %bf.load5 = load i32, ptr %.compoundliteral, align 4
  %bf.clear6 = and i32 %bf.load5, -13
  %bf.set7 = or i32 %bf.clear6, 0
  store i32 %bf.set7, ptr %.compoundliteral, align 4
  %bf.load8 = load i32, ptr %.compoundliteral, align 4
  %bf.clear9 = and i32 %bf.load8, -17
  %bf.set10 = or i32 %bf.clear9, 0
  store i32 %bf.set10, ptr %.compoundliteral, align 4
  %bf.load11 = load i32, ptr %.compoundliteral, align 4
  %bf.clear12 = and i32 %bf.load11, -33
  %bf.set13 = or i32 %bf.clear12, 0
  store i32 %bf.set13, ptr %.compoundliteral, align 4
  %bf.load14 = load i32, ptr %.compoundliteral, align 4
  %bf.clear15 = and i32 %bf.load14, -4194241
  %bf.set16 = or i32 %bf.clear15, 0
  store i32 %bf.set16, ptr %.compoundliteral, align 4
  %bf.load17 = load i32, ptr %.compoundliteral, align 4
  %bf.clear18 = and i32 %bf.load17, -4194305
  %bf.set19 = or i32 %bf.clear18, 0
  store i32 %bf.set19, ptr %.compoundliteral, align 4
  %bf.load20 = load i32, ptr %.compoundliteral, align 4
  %bf.clear21 = and i32 %bf.load20, -8388609
  %bf.set22 = or i32 %bf.clear21, 0
  store i32 %bf.set22, ptr %.compoundliteral, align 4
  %bf.load23 = load i32, ptr %.compoundliteral, align 4
  %bf.clear24 = and i32 %bf.load23, -16777217
  %bf.set25 = or i32 %bf.clear24, 0
  store i32 %bf.set25, ptr %.compoundliteral, align 4
  %bf.load26 = load i32, ptr %.compoundliteral, align 4
  %bf.clear27 = and i32 %bf.load26, -33554433
  %bf.set28 = or i32 %bf.clear27, 0
  store i32 %bf.set28, ptr %.compoundliteral, align 4
  %coerce.dive = getelementptr inbounds %struct.MemTxAttrs, ptr %.compoundliteral, i32 0, i32 0
  %13 = load i32, ptr %coerce.dive, align 4
  %call29 = call i32 @dma_memory_write(ptr noundef %11, i64 noundef %conv, ptr noundef %tmp, i64 noundef 4, i32 %13)
  br label %for.inc

for.inc:                                          ; preds = %for.body
  %14 = load i32, ptr %i, align 4
  %inc = add i32 %14, 1
  store i32 %inc, ptr %i, align 4
  %15 = load ptr, ptr %buf.addr, align 8
  %incdec.ptr = getelementptr i32, ptr %15, i32 1
  store ptr %incdec.ptr, ptr %buf.addr, align 8
  %16 = load i32, ptr %addr.addr, align 4
  %conv30 = zext i32 %16 to i64
  %add = add i64 %conv30, 4
  %conv31 = trunc i64 %add to i32
  store i32 %conv31, ptr %addr.addr, align 4
  br label %for.cond, !llvm.loop !15

for.end:                                          ; preds = %for.cond
  %17 = load i32, ptr %num.addr, align 4
  store i32 %17, ptr %retval, align 4
  br label %return

return:                                           ; preds = %for.end, %if.then
  %18 = load i32, ptr %retval, align 4
  ret i32 %18
}