; Function Attrs: nounwind sspstrong uwtable
define internal fastcc void @put_dwords(ptr noundef captures(none) %ehci, i32 noundef range(i32 0, -19) %addr, ptr noundef readonly captures(none) %buf, i32 noundef range(i32 1, 17) %num) unnamed_addr #0 {
entry:
  %_now.i.i = alloca %struct.timeval, align 8
  %tmp = alloca i32, align 4
  %as = getelementptr inbounds nuw i8, ptr %ehci, i64 480
  %0 = load ptr, ptr %as, align 16
  %tobool.not = icmp eq ptr %0, null
  br i1 %tobool.not, label %if.then, label %for.body

if.then:                                          ; preds = %entry
  %usbsts.i = getelementptr inbounds nuw i8, ptr %ehci, i64 1352
  %1 = load i32, ptr %usbsts.i, align 4
  %or.i = or i32 %1, 16
  store i32 %or.i, ptr %usbsts.i, align 4
  tail call fastcc void @ehci_update_irq(ptr noundef nonnull %ehci)
  %2 = getelementptr inbounds nuw i8, ptr %ehci, i64 1348
  %3 = load i32, ptr %2, align 4
  %and = and i32 %3, -2
  store i32 %and, ptr %2, align 4
  call void @llvm.lifetime.start.p0(i64 16, ptr nonnull %_now.i.i)
  %4 = load i32, ptr @trace_events_enabled_count, align 4
  %tobool.i.i = icmp ne i32 %4, 0
  %5 = load i16, ptr @_TRACE_USB_EHCI_DMA_ERROR_DSTATE, align 2
  %tobool4.i.i = icmp ne i16 %5, 0
  %or.cond.i.i = select i1 %tobool.i.i, i1 %tobool4.i.i, i1 false
  br i1 %or.cond.i.i, label %land.lhs.true5.i.i, label %trace_usb_ehci_dma_error.exit

land.lhs.true5.i.i:                               ; preds = %if.then
  %6 = load i32, ptr @qemu_loglevel, align 4
  %and.i.i.i = and i32 %6, 32768
  %cmp.i.not.i.i = icmp eq i32 %and.i.i.i, 0
  br i1 %cmp.i.not.i.i, label %trace_usb_ehci_dma_error.exit, label %if.then.i.i

if.then.i.i:                                      ; preds = %land.lhs.true5.i.i
  %7 = load i8, ptr @message_with_timestamp, align 1
  %tobool7.i.i = trunc i8 %7 to i1
  br i1 %tobool7.i.i, label %if.then8.i.i, label %if.else.i.i

if.then8.i.i:                                     ; preds = %if.then.i.i
  %call9.i.i = call i32 @gettimeofday(ptr noundef nonnull %_now.i.i, ptr noundef null) #17
  %call10.i.i = tail call i32 @qemu_get_thread_id() #17
  %8 = load i64, ptr %_now.i.i, align 8
  %tv_usec.i.i = getelementptr inbounds nuw i8, ptr %_now.i.i, i64 8
  %9 = load i64, ptr %tv_usec.i.i, align 8
  tail call void (ptr, ...) @qemu_log(ptr noundef nonnull @.str.44, i32 noundef %call10.i.i, i64 noundef %8, i64 noundef %9) #17
  br label %trace_usb_ehci_dma_error.exit

if.else.i.i:                                      ; preds = %if.then.i.i
  tail call void (ptr, ...) @qemu_log(ptr noundef nonnull @.str.45) #17
  br label %trace_usb_ehci_dma_error.exit

trace_usb_ehci_dma_error.exit:                    ; preds = %if.then, %land.lhs.true5.i.i, %if.then8.i.i, %if.else.i.i
  call void @llvm.lifetime.end.p0(i64 16, ptr nonnull %_now.i.i)
  br label %return

for.body:                                         ; preds = %entry, %for.body
  %i.020 = phi i32 [ %inc, %for.body ], [ 0, %entry ]
  %buf.addr.019 = phi ptr [ %incdec.ptr, %for.body ], [ %buf, %entry ]
  %addr.addr.018 = phi i32 [ %add, %for.body ], [ %addr, %entry ]
  %10 = load i32, ptr %buf.addr.019, align 4
  store i32 %10, ptr %tmp, align 4
  %11 = load ptr, ptr %as, align 16
  %conv = zext i32 %addr.addr.018 to i64
  call void asm sideeffect "", "~{memory},~{dirflag},~{fpsr},~{flags}"() #17, !srcloc !15
  fence seq_cst
  %call.i.i.i = call i32 @address_space_rw(ptr noundef %11, i64 noundef range(i64 0, 4294967296) %conv, i32 1, ptr noundef nonnull %tmp, i64 noundef 4, i1 noundef zeroext true) #17
  %inc = add nuw nsw i32 %i.020, 1
  %incdec.ptr = getelementptr i8, ptr %buf.addr.019, i64 4
  %add = add i32 %addr.addr.018, 4
  %exitcond.not = icmp eq i32 %inc, %num
  br i1 %exitcond.not, label %return, label %for.body, !llvm.loop !17

return:                                           ; preds = %for.body, %trace_usb_ehci_dma_error.exit
  ret void
}